target datalayout = "e-m:e-p270:32:32-p271:32:32-p272:64:64-i64:64-i128:128-f80:128-n8:16:32:64-S128"
target triple = "x86_64-pc-linux-gnu"

%struct._fcgi_request = type { i32, i32, i32, i32, i32, i32, i32, i32, i32, ptr, ptr, [8192 x i8], [16 x i8], %struct._fcgi_req_hook, i32, %struct._fcgi_hash }
%struct._fcgi_req_hook = type { ptr, ptr, ptr }
%struct._fcgi_hash = type { [128 x ptr], ptr, ptr, ptr }
%struct._fcgi_hash_buckets = type { i32, ptr, [128 x %struct._fcgi_hash_bucket] }
%struct._fcgi_hash_bucket = type { i32, i32, ptr, i32, ptr, ptr, ptr }
%struct._fcgi_data_seg = type { ptr, ptr, ptr, [1 x i8] }

; Function Attrs: nounwind uwtable
define internal void @fcgi_hash_clean(ptr noundef %0) #0 {
  %2 = alloca ptr, align 8
  %3 = alloca ptr, align 8
  %4 = alloca ptr, align 8
  store ptr %0, ptr %2, align 8
  %5 = load ptr, ptr %2, align 8
  %6 = getelementptr inbounds %struct._fcgi_hash, ptr %5, i32 0, i32 0
  %7 = getelementptr inbounds [128 x ptr], ptr %6, i64 0, i64 0
  call void @llvm.memset.p0.i64(ptr align 8 %7, i8 0, i64 1024, i1 false)
  %8 = load ptr, ptr %2, align 8
  %9 = getelementptr inbounds %struct._fcgi_hash, ptr %8, i32 0, i32 1
  store ptr null, ptr %9, align 8
  br label %10

10:                                               ; preds = %17, %1
  %11 = load ptr, ptr %2, align 8
  %12 = getelementptr inbounds %struct._fcgi_hash, ptr %11, i32 0, i32 2
  %13 = load ptr, ptr %12, align 8
  %14 = getelementptr inbounds %struct._fcgi_hash_buckets, ptr %13, i32 0, i32 1
  %15 = load ptr, ptr %14, align 8
  %16 = icmp ne ptr %15, null
  br i1 %16, label %17, label %29

17:                                               ; preds = %10
  %18 = load ptr, ptr %2, align 8
  %19 = getelementptr inbounds %struct._fcgi_hash, ptr %18, i32 0, i32 2
  %20 = load ptr, ptr %19, align 8
  store ptr %20, ptr %3, align 8
  %21 = load ptr, ptr %2, align 8
  %22 = getelementptr inbounds %struct._fcgi_hash, ptr %21, i32 0, i32 2
  %23 = load ptr, ptr %22, align 8
  %24 = getelementptr inbounds %struct._fcgi_hash_buckets, ptr %23, i32 0, i32 1
  %25 = load ptr, ptr %24, align 8
  %26 = load ptr, ptr %2, align 8
  %27 = getelementptr inbounds %struct._fcgi_hash, ptr %26, i32 0, i32 2
  store ptr %25, ptr %27, align 8
  %28 = load ptr, ptr %3, align 8
  call void @free(ptr noundef %28) #13
  br label %10

29:                                               ; preds = %10
  %30 = load ptr, ptr %2, align 8
  %31 = getelementptr inbounds %struct._fcgi_hash, ptr %30, i32 0, i32 2
  %32 = load ptr, ptr %31, align 8
  %33 = getelementptr inbounds %struct._fcgi_hash_buckets, ptr %32, i32 0, i32 0
  store i32 0, ptr %33, align 8
  br label %34

34:                                               ; preds = %41, %29
  %35 = load ptr, ptr %2, align 8
  %36 = getelementptr inbounds %struct._fcgi_hash, ptr %35, i32 0, i32 3
  %37 = load ptr, ptr %36, align 8
  %38 = getelementptr inbounds %struct._fcgi_data_seg, ptr %37, i32 0, i32 2
  %39 = load ptr, ptr %38, align 8
  %40 = icmp ne ptr %39, null
  br i1 %40, label %41, label %53

41:                                               ; preds = %34
  %42 = load ptr, ptr %2, align 8
  %43 = getelementptr inbounds %struct._fcgi_hash, ptr %42, i32 0, i32 3
  %44 = load ptr, ptr %43, align 8
  store ptr %44, ptr %4, align 8
  %45 = load ptr, ptr %2, align 8
  %46 = getelementptr inbounds %struct._fcgi_hash, ptr %45, i32 0, i32 3
  %47 = load ptr, ptr %46, align 8
  %48 = getelementptr inbounds %struct._fcgi_data_seg, ptr %47, i32 0, i32 2
  %49 = load ptr, ptr %48, align 8
  %50 = load ptr, ptr %2, align 8
  %51 = getelementptr inbounds %struct._fcgi_hash, ptr %50, i32 0, i32 3
  store ptr %49, ptr %51, align 8
  %52 = load ptr, ptr %4, align 8
  call void @free(ptr noundef %52) #13
  br label %34

53:                                               ; preds = %34
  %54 = load ptr, ptr %2, align 8
  %55 = getelementptr inbounds %struct._fcgi_hash, ptr %54, i32 0, i32 3
  %56 = load ptr, ptr %55, align 8
  %57 = getelementptr inbounds %struct._fcgi_data_seg, ptr %56, i32 0, i32 3
  %58 = getelementptr inbounds [1 x i8], ptr %57, i64 0, i64 0
  %59 = load ptr, ptr %2, align 8
  %60 = getelementptr inbounds %struct._fcgi_hash, ptr %59, i32 0, i32 3
  %61 = load ptr, ptr %60, align 8
  %62 = getelementptr inbounds %struct._fcgi_data_seg, ptr %61, i32 0, i32 0
  store ptr %58, ptr %62, align 8
  ret void
}

; Function Attrs: nounwind uwtable
define hidden void @fcgi_close(ptr noundef %0, i32 noundef %1, i32 noundef %2) #0 {
  %4 = alloca ptr, align 8
  %5 = alloca i32, align 4
  %6 = alloca i32, align 4
  %7 = alloca [8 x i8], align 1
  store ptr %0, ptr %4, align 8
  store i32 %1, ptr %5, align 4
  store i32 %2, ptr %6, align 4
  %8 = load i32, ptr %6, align 4
  %9 = icmp ne i32 %8, 0
  br i1 %9, label %10, label %20

10:                                               ; preds = %3
  %11 = load ptr, ptr %4, align 8
  %12 = getelementptr inbounds %struct._fcgi_request, ptr %11, i32 0, i32 14
  %13 = load i32, ptr %12, align 8
  %14 = icmp ne i32 %13, 0
  br i1 %14, label %15, label %20

15:                                               ; preds = %10
  %16 = load ptr, ptr %4, align 8
  %17 = getelementptr inbounds %struct._fcgi_request, ptr %16, i32 0, i32 15
  call void @fcgi_hash_clean(ptr noundef %17)
  %18 = load ptr, ptr %4, align 8
  %19 = getelementptr inbounds %struct._fcgi_request, ptr %18, i32 0, i32 14
  store i32 0, ptr %19, align 8
  br label %20

20:                                               ; preds = %15, %10, %3
  %21 = load i32, ptr %5, align 4
  %22 = icmp ne i32 %21, 0
  br i1 %22, label %28, label %23

23:                                               ; preds = %20
  %24 = load ptr, ptr %4, align 8
  %25 = getelementptr inbounds %struct._fcgi_request, ptr %24, i32 0, i32 4
  %26 = load i32, ptr %25, align 8
  %27 = icmp ne i32 %26, 0
  br i1 %27, label %63, label %28

28:                                               ; preds = %23, %20
  %29 = load ptr, ptr %4, align 8
  %30 = getelementptr inbounds %struct._fcgi_request, ptr %29, i32 0, i32 2
  %31 = load i32, ptr %30, align 8
  %32 = icmp sge i32 %31, 0
  br i1 %32, label %33, label %63

33:                                               ; preds = %28
  %34 = load i32, ptr %5, align 4
  %35 = icmp ne i32 %34, 0
  br i1 %35, label %50, label %36

36:                                               ; preds = %33
  %37 = load ptr, ptr %4, align 8
  %38 = getelementptr inbounds %struct._fcgi_request, ptr %37, i32 0, i32 2
  %39 = load i32, ptr %38, align 8
  %40 = call i32 @shutdown(i32 noundef %39, i32 noundef 1) #13
  br label %41

41:                                               ; preds = %48, %36
  %42 = load ptr, ptr %4, align 8
  %43 = getelementptr inbounds %struct._fcgi_request, ptr %42, i32 0, i32 2
  %44 = load i32, ptr %43, align 8
  %45 = getelementptr inbounds [8 x i8], ptr %7, i64 0, i64 0
  %46 = call i64 @recv(i32 noundef %44, ptr noundef %45, i64 noundef 8, i32 noundef 0)
  %47 = icmp sgt i64 %46, 0
  br i1 %47, label %48, label %49

48:                                               ; preds = %41
  br label %41

49:                                               ; preds = %41
  br label %50

50:                                               ; preds = %49, %33
  %51 = load ptr, ptr %4, align 8
  %52 = getelementptr inbounds %struct._fcgi_request, ptr %51, i32 0, i32 2
  %53 = load i32, ptr %52, align 8
  %54 = call i32 @close(i32 noundef %53)
  %55 = load ptr, ptr %4, align 8
  %56 = getelementptr inbounds %struct._fcgi_request, ptr %55, i32 0, i32 5
  store i32 0, ptr %56, align 4
  %57 = load ptr, ptr %4, align 8
  %58 = getelementptr inbounds %struct._fcgi_request, ptr %57, i32 0, i32 2
  store i32 -1, ptr %58, align 8
  %59 = load ptr, ptr %4, align 8
  %60 = getelementptr inbounds %struct._fcgi_request, ptr %59, i32 0, i32 13
  %61 = getelementptr inbounds %struct._fcgi_req_hook, ptr %60, i32 0, i32 2
  %62 = load ptr, ptr %61, align 8
  call void %62()
  br label %63

63:                                               ; preds = %50, %28, %23
  ret void
}