; Function Attrs: nounwind uwtable
define hidden void @fcgi_close(ptr nocapture noundef %0, i32 noundef %1, i32 noundef %2) local_unnamed_addr #3 {
  %4 = alloca [8 x i8], align 1
  %.not = icmp eq i32 %2, 0
  br i1 %.not, label %29, label %5

5:                                                ; preds = %3
  %6 = getelementptr inbounds i8, ptr %0, i64 8288
  %7 = load i32, ptr %6, align 8
  %.not13 = icmp eq i32 %7, 0
  br i1 %.not13, label %29, label %8

8:                                                ; preds = %5
  %9 = getelementptr inbounds i8, ptr %0, i64 8296
  %10 = getelementptr inbounds i8, ptr %0, i64 9328
  tail call void @llvm.memset.p0.i64(ptr noundef nonnull align 8 dereferenceable(1032) %9, i8 0, i64 1032, i1 false)
  %11 = load ptr, ptr %10, align 8
  %12 = getelementptr inbounds i8, ptr %11, i64 8
  %13 = load ptr, ptr %12, align 8
  %.not18.i = icmp eq ptr %13, null
  br i1 %.not18.i, label %._crit_edge.i, label %.lr.ph.i

.lr.ph.i:                                         ; preds = %8, %.lr.ph.i
  %14 = phi ptr [ %18, %.lr.ph.i ], [ %13, %8 ]
  %15 = phi ptr [ %16, %.lr.ph.i ], [ %11, %8 ]
  store ptr %14, ptr %10, align 8
  tail call void @free(ptr noundef nonnull %15) #32
  %16 = load ptr, ptr %10, align 8
  %17 = getelementptr inbounds i8, ptr %16, i64 8
  %18 = load ptr, ptr %17, align 8
  %.not.i = icmp eq ptr %18, null
  br i1 %.not.i, label %._crit_edge.i, label %.lr.ph.i

._crit_edge.i:                                    ; preds = %.lr.ph.i, %8
  %.lcssa17.i = phi ptr [ %11, %8 ], [ %16, %.lr.ph.i ]
  store i32 0, ptr %.lcssa17.i, align 8
  %19 = getelementptr inbounds i8, ptr %0, i64 9336
  %20 = load ptr, ptr %19, align 8
  %21 = getelementptr inbounds i8, ptr %20, i64 16
  %22 = load ptr, ptr %21, align 8
  %.not1619.i = icmp eq ptr %22, null
  br i1 %.not1619.i, label %fcgi_hash_clean.exit, label %.lr.ph21.i

.lr.ph21.i:                                       ; preds = %._crit_edge.i, %.lr.ph21.i
  %23 = phi ptr [ %27, %.lr.ph21.i ], [ %22, %._crit_edge.i ]
  %24 = phi ptr [ %25, %.lr.ph21.i ], [ %20, %._crit_edge.i ]
  store ptr %23, ptr %19, align 8
  tail call void @free(ptr noundef nonnull %24) #32
  %25 = load ptr, ptr %19, align 8
  %26 = getelementptr inbounds i8, ptr %25, i64 16
  %27 = load ptr, ptr %26, align 8
  %.not16.i = icmp eq ptr %27, null
  br i1 %.not16.i, label %fcgi_hash_clean.exit, label %.lr.ph21.i

fcgi_hash_clean.exit:                             ; preds = %.lr.ph21.i, %._crit_edge.i
  %.lcssa.i = phi ptr [ %20, %._crit_edge.i ], [ %25, %.lr.ph21.i ]
  %28 = getelementptr inbounds i8, ptr %.lcssa.i, i64 24
  store ptr %28, ptr %.lcssa.i, align 8
  store i32 0, ptr %6, align 8
  br label %29

29:                                               ; preds = %fcgi_hash_clean.exit, %5, %3
  %.not14 = icmp eq i32 %1, 0
  br i1 %.not14, label %30, label %.thread

30:                                               ; preds = %29
  %31 = getelementptr inbounds i8, ptr %0, i64 16
  %32 = load i32, ptr %31, align 8
  %.not15 = icmp eq i32 %32, 0
  br i1 %.not15, label %33, label %52

33:                                               ; preds = %30
  %34 = getelementptr inbounds i8, ptr %0, i64 8
  %35 = load i32, ptr %34, align 8
  %36 = icmp sgt i32 %35, -1
  br i1 %36, label %40, label %52

.thread:                                          ; preds = %29
  %37 = getelementptr inbounds i8, ptr %0, i64 8
  %38 = load i32, ptr %37, align 8
  %39 = icmp sgt i32 %38, -1
  br i1 %39, label %.thread16, label %52

40:                                               ; preds = %33
  %41 = tail call i32 @shutdown(i32 noundef %35, i32 noundef 1) #32
  br label %42

42:                                               ; preds = %42, %40
  %43 = load i32, ptr %34, align 8
  %44 = call i64 @recv(i32 noundef %43, ptr noundef nonnull %4, i64 noundef 8, i32 noundef 0) #32
  %45 = icmp sgt i64 %44, 0
  br i1 %45, label %42, label %.thread16.loopexit

.thread16.loopexit:                               ; preds = %42
  %.pre = load i32, ptr %34, align 8
  br label %.thread16

.thread16:                                        ; preds = %.thread16.loopexit, %.thread
  %46 = phi i32 [ %38, %.thread ], [ %.pre, %.thread16.loopexit ]
  %47 = phi ptr [ %37, %.thread ], [ %34, %.thread16.loopexit ]
  %48 = call i32 @close(i32 noundef %46) #32
  %49 = getelementptr inbounds i8, ptr %0, i64 20
  store i32 0, ptr %49, align 4
  store i32 -1, ptr %47, align 8
  %50 = getelementptr inbounds i8, ptr %0, i64 8280
  %51 = load ptr, ptr %50, align 8
  call void %51() #32
  br label %52

52:                                               ; preds = %.thread, %.thread16, %33, %30
  ret void
}